target datalayout = "e-m:e-p270:32:32-p271:32:32-p272:64:64-i64:64-i128:128-f80:128-n8:16:32:64-S128"
target triple = "x86_64-pc-linux-gnu"

%"class.duckdb::unique_ptr" = type { %"class.std::unique_ptr" }
%"class.std::unique_ptr" = type { %"struct.std::__uniq_ptr_data" }
%"struct.std::__uniq_ptr_data" = type { %"class.std::__uniq_ptr_impl" }
%"class.std::__uniq_ptr_impl" = type { %"class.std::tuple" }
%"class.std::tuple" = type { %"struct.std::_Tuple_impl" }
%"struct.std::_Tuple_impl" = type { %"struct.std::_Head_base.8" }
%"struct.std::_Head_base.8" = type { ptr }
%"struct.std::_Vector_base.32" = type { %"struct.std::_Vector_base<duckdb::unique_ptr<duckdb::Expression>, std::allocator<duckdb::unique_ptr<duckdb::Expression>>>::_Vector_impl" }
%"struct.std::_Vector_base<duckdb::unique_ptr<duckdb::Expression>, std::allocator<duckdb::unique_ptr<duckdb::Expression>>>::_Vector_impl" = type { %"struct.std::_Vector_base<duckdb::unique_ptr<duckdb::Expression>, std::allocator<duckdb::unique_ptr<duckdb::Expression>>>::_Vector_impl_data" }
%"struct.std::_Vector_base<duckdb::unique_ptr<duckdb::Expression>, std::allocator<duckdb::unique_ptr<duckdb::Expression>>>::_Vector_impl_data" = type { ptr, ptr, ptr }

; Function Attrs: mustprogress nounwind uwtable
define linkonce_odr noundef i64 @_ZNKSt6vectorIN6duckdb10unique_ptrINS0_10ExpressionESt14default_deleteIS2_ELb1EEESaIS5_EE4sizeEv(ptr noundef nonnull align 8 dereferenceable(24) %0) #6 comdat align 2 {
  %2 = alloca ptr, align 8
  store ptr %0, ptr %2, align 8, !tbaa !533
  %3 = load ptr, ptr %2, align 8
  %4 = getelementptr inbounds nuw %"struct.std::_Vector_base.32", ptr %3, i32 0, i32 0
  %5 = getelementptr inbounds nuw %"struct.std::_Vector_base<duckdb::unique_ptr<duckdb::Expression>, std::allocator<duckdb::unique_ptr<duckdb::Expression>>>::_Vector_impl_data", ptr %4, i32 0, i32 1
  %6 = load ptr, ptr %5, align 8, !tbaa !535
  %7 = getelementptr inbounds nuw %"struct.std::_Vector_base.32", ptr %3, i32 0, i32 0
  %8 = getelementptr inbounds nuw %"struct.std::_Vector_base<duckdb::unique_ptr<duckdb::Expression>, std::allocator<duckdb::unique_ptr<duckdb::Expression>>>::_Vector_impl_data", ptr %7, i32 0, i32 0
  %9 = load ptr, ptr %8, align 8, !tbaa !536
  %10 = ptrtoint ptr %6 to i64
  %11 = ptrtoint ptr %9 to i64
  %12 = sub i64 %10, %11
  %13 = sdiv exact i64 %12, 8
  ret i64 %13
}

; Function Attrs: mustprogress uwtable
define internal void @_ZN6duckdbL18ListNormalSortBindERNS_13ClientContextERNS_14ScalarFunctionERNS_6vectorINS_10unique_ptrINS_10ExpressionESt14default_deleteIS6_ELb1EEELb1EEE(ptr dead_on_unwind noalias writable sret(%"class.duckdb::unique_ptr") align 8 %0, ptr noundef nonnull align 8 dereferenceable(648) %1, ptr noundef nonnull align 8 dereferenceable(296) %2, ptr noundef nonnull align 8 dereferenceable(24) %3) #4 {
  %5 = alloca ptr, align 8
  %6 = alloca ptr, align 8
  %7 = alloca ptr, align 8
  %8 = alloca ptr, align 8
  %9 = alloca i8, align 1
  %10 = alloca i8, align 1
  %11 = alloca ptr, align 8
  store ptr %0, ptr %5, align 8
  store ptr %1, ptr %6, align 8, !tbaa !63
  store ptr %2, ptr %7, align 8, !tbaa !65
  store ptr %3, ptr %8, align 8, !tbaa !67
  call void @llvm.lifetime.start.p0(i64 1, ptr %9) #3
  store i8 1, ptr %9, align 1, !tbaa !216
  call void @llvm.lifetime.start.p0(i64 1, ptr %10) #3
  store i8 1, ptr %10, align 1, !tbaa !218
  %12 = load ptr, ptr %8, align 8, !tbaa !67
  %13 = call noundef i64 @_ZNKSt6vectorIN6duckdb10unique_ptrINS0_10ExpressionESt14default_deleteIS2_ELb1EEESaIS5_EE4sizeEv(ptr noundef nonnull align 8 dereferenceable(24) %12) #3
  %14 = icmp uge i64 %13, 2
  br i1 %14, label %15, label %21

15:                                               ; preds = %4
  %16 = load ptr, ptr %6, align 8, !tbaa !63
  %17 = load ptr, ptr %8, align 8, !tbaa !67
  %18 = call noundef nonnull align 8 dereferenceable(8) ptr @_ZN6duckdb6vectorINS_10unique_ptrINS_10ExpressionESt14default_deleteIS2_ELb1EEELb1EEixEm(ptr noundef nonnull align 8 dereferenceable(24) %17, i64 noundef 1)
  %19 = call noundef nonnull align 8 dereferenceable(88) ptr @_ZNK6duckdb10unique_ptrINS_10ExpressionESt14default_deleteIS1_ELb1EEdeEv(ptr noundef nonnull align 8 dereferenceable(8) %18)
  %20 = call noundef zeroext i8 @_ZN6duckdbL8GetOrderINS_9OrderTypeEEET_RNS_13ClientContextERNS_10ExpressionE(ptr noundef nonnull align 8 dereferenceable(648) %16, ptr noundef nonnull align 8 dereferenceable(88) %19)
  store i8 %20, ptr %9, align 1, !tbaa !216
  br label %21

21:                                               ; preds = %15, %4
  %22 = load ptr, ptr %8, align 8, !tbaa !67
  %23 = call noundef i64 @_ZNKSt6vectorIN6duckdb10unique_ptrINS0_10ExpressionESt14default_deleteIS2_ELb1EEESaIS5_EE4sizeEv(ptr noundef nonnull align 8 dereferenceable(24) %22) #3
  %24 = icmp eq i64 %23, 3
  br i1 %24, label %25, label %31

25:                                               ; preds = %21
  %26 = load ptr, ptr %6, align 8, !tbaa !63
  %27 = load ptr, ptr %8, align 8, !tbaa !67
  %28 = call noundef nonnull align 8 dereferenceable(8) ptr @_ZN6duckdb6vectorINS_10unique_ptrINS_10ExpressionESt14default_deleteIS2_ELb1EEELb1EEixEm(ptr noundef nonnull align 8 dereferenceable(24) %27, i64 noundef 2)
  %29 = call noundef nonnull align 8 dereferenceable(88) ptr @_ZNK6duckdb10unique_ptrINS_10ExpressionESt14default_deleteIS1_ELb1EEdeEv(ptr noundef nonnull align 8 dereferenceable(8) %28)
  %30 = call noundef zeroext i8 @_ZN6duckdbL8GetOrderINS_15OrderByNullTypeEEET_RNS_13ClientContextERNS_10ExpressionE(ptr noundef nonnull align 8 dereferenceable(648) %26, ptr noundef nonnull align 8 dereferenceable(88) %29)
  store i8 %30, ptr %10, align 1, !tbaa !218
  br label %31

31:                                               ; preds = %25, %21
  call void @llvm.lifetime.start.p0(i64 8, ptr %11) #3
  %32 = load ptr, ptr %6, align 8, !tbaa !63
  %33 = call noundef nonnull align 8 dereferenceable(1673) ptr @_ZN6duckdb8DBConfig9GetConfigERNS_13ClientContextE(ptr noundef nonnull align 8 dereferenceable(648) %32)
  store ptr %33, ptr %11, align 8, !tbaa !344
  %34 = load ptr, ptr %11, align 8, !tbaa !344
  %35 = load i8, ptr %9, align 1, !tbaa !216
  %36 = call noundef zeroext i8 @_ZNK6duckdb8DBConfig12ResolveOrderENS_9OrderTypeE(ptr noundef nonnull align 8 dereferenceable(1673) %34, i8 noundef zeroext %35)
  store i8 %36, ptr %9, align 1, !tbaa !216
  %37 = load ptr, ptr %11, align 8, !tbaa !344
  %38 = load i8, ptr %9, align 1, !tbaa !216
  %39 = load i8, ptr %10, align 1, !tbaa !218
  %40 = call noundef zeroext i8 @_ZNK6duckdb8DBConfig16ResolveNullOrderENS_9OrderTypeENS_15OrderByNullTypeE(ptr noundef nonnull align 8 dereferenceable(1673) %37, i8 noundef zeroext %38, i8 noundef zeroext %39)
  store i8 %40, ptr %10, align 1, !tbaa !218
  %41 = load ptr, ptr %6, align 8, !tbaa !63
  %42 = load ptr, ptr %7, align 8, !tbaa !65
  %43 = load ptr, ptr %8, align 8, !tbaa !67
  call void @_ZN6duckdbL12ListSortBindERNS_13ClientContextERNS_14ScalarFunctionERNS_6vectorINS_10unique_ptrINS_10ExpressionESt14default_deleteIS6_ELb1EEELb1EEERNS_9OrderTypeERNS_15OrderByNullTypeE(ptr dead_on_unwind writable sret(%"class.duckdb::unique_ptr") align 8 %0, ptr noundef nonnull align 8 dereferenceable(648) %41, ptr noundef nonnull align 8 dereferenceable(296) %42, ptr noundef nonnull align 8 dereferenceable(24) %43, ptr noundef nonnull align 1 dereferenceable(1) %9, ptr noundef nonnull align 1 dereferenceable(1) %10)
  call void @llvm.lifetime.end.p0(i64 8, ptr %11) #3
  call void @llvm.lifetime.end.p0(i64 1, ptr %10) #3
  call void @llvm.lifetime.end.p0(i64 1, ptr %9) #3
  ret void
}