; Function Attrs: mustprogress uwtable
define internal void @_ZN6duckdbL18ListNormalSortBindERNS_13ClientContextERNS_14ScalarFunctionERNS_6vectorINS_10unique_ptrINS_10ExpressionESt14default_deleteIS6_ELb1EEELb1EEE(ptr dead_on_unwind noalias writable writeonly sret(%"class.duckdb::unique_ptr") align 8 captures(none) %0, ptr noundef nonnull align 8 dereferenceable(648) %1, ptr noundef nonnull align 8 dereferenceable(296) %2, ptr noundef nonnull align 8 dereferenceable(24) %3) #3 {
  %5 = getelementptr inbounds nuw i8, ptr %3, i64 8
  %6 = load ptr, ptr %5, align 8, !tbaa !377
  %7 = load ptr, ptr %3, align 8, !tbaa !378
  %8 = ptrtoint ptr %6 to i64
  %9 = ptrtoint ptr %7 to i64
  %10 = sub i64 %8, %9
  %11 = icmp ugt i64 %10, 8
  br i1 %11, label %12, label %16

12:                                               ; preds = %4
  %13 = tail call noundef nonnull align 8 dereferenceable(8) ptr @_ZN6duckdb6vectorINS_10unique_ptrINS_10ExpressionESt14default_deleteIS2_ELb1EEELb1EEixEm(ptr noundef nonnull align 8 dereferenceable(24) %3, i64 noundef 1)
  %14 = tail call noundef nonnull align 8 dereferenceable(88) ptr @_ZNK6duckdb10unique_ptrINS_10ExpressionESt14default_deleteIS1_ELb1EEdeEv(ptr noundef nonnull align 8 dereferenceable(8) %13)
  %15 = tail call fastcc noundef zeroext i8 @_ZN6duckdbL8GetOrderINS_9OrderTypeEEET_RNS_13ClientContextERNS_10ExpressionE(ptr noundef nonnull align 8 dereferenceable(648) %1, ptr noundef nonnull align 8 dereferenceable(88) %14)
  %.pre = load ptr, ptr %5, align 8, !tbaa !377
  %.pre17 = load ptr, ptr %3, align 8, !tbaa !378
  %.pre18 = ptrtoint ptr %.pre to i64
  %.pre19 = ptrtoint ptr %.pre17 to i64
  br label %16

16:                                               ; preds = %12, %4
  %.pre-phi20 = phi i64 [ %.pre19, %12 ], [ %9, %4 ]
  %.pre-phi = phi i64 [ %.pre18, %12 ], [ %8, %4 ]
  %.016 = phi i8 [ %15, %12 ], [ 1, %4 ]
  %17 = sub i64 %.pre-phi, %.pre-phi20
  %18 = icmp eq i64 %17, 24
  br i1 %18, label %19, label %23

19:                                               ; preds = %16
  %20 = tail call noundef nonnull align 8 dereferenceable(8) ptr @_ZN6duckdb6vectorINS_10unique_ptrINS_10ExpressionESt14default_deleteIS2_ELb1EEELb1EEixEm(ptr noundef nonnull align 8 dereferenceable(24) %3, i64 noundef 2)
  %21 = tail call noundef nonnull align 8 dereferenceable(88) ptr @_ZNK6duckdb10unique_ptrINS_10ExpressionESt14default_deleteIS1_ELb1EEdeEv(ptr noundef nonnull align 8 dereferenceable(8) %20)
  %22 = tail call fastcc noundef zeroext i8 @_ZN6duckdbL8GetOrderINS_15OrderByNullTypeEEET_RNS_13ClientContextERNS_10ExpressionE(ptr noundef nonnull align 8 dereferenceable(648) %1, ptr noundef nonnull align 8 dereferenceable(88) %21)
  br label %23

23:                                               ; preds = %19, %16
  %.0 = phi i8 [ %22, %19 ], [ 1, %16 ]
  %24 = tail call noundef nonnull align 8 dereferenceable(1673) ptr @_ZN6duckdb8DBConfig9GetConfigERNS_13ClientContextE(ptr noundef nonnull align 8 dereferenceable(648) %1)
  %25 = tail call noundef zeroext i8 @_ZNK6duckdb8DBConfig12ResolveOrderENS_9OrderTypeE(ptr noundef nonnull align 8 dereferenceable(1673) %24, i8 noundef zeroext %.016)
  %26 = tail call noundef zeroext i8 @_ZNK6duckdb8DBConfig16ResolveNullOrderENS_9OrderTypeENS_15OrderByNullTypeE(ptr noundef nonnull align 8 dereferenceable(1673) %24, i8 noundef zeroext %25, i8 noundef zeroext %.0)
  tail call fastcc void @_ZN6duckdbL12ListSortBindERNS_13ClientContextERNS_14ScalarFunctionERNS_6vectorINS_10unique_ptrINS_10ExpressionESt14default_deleteIS6_ELb1EEELb1EEERNS_9OrderTypeERNS_15OrderByNullTypeE(ptr dead_on_unwind noalias writable align 8 %0, ptr noundef nonnull align 8 dereferenceable(648) %1, ptr noundef nonnull align 8 dereferenceable(296) %2, ptr noundef nonnull align 8 dereferenceable(24) %3, i8 %25, i8 %26)
  ret void
}